Microsoft (R) COFF/PE Dumper Version 14.00.24215.1
Copyright (C) Microsoft Corporation.  All rights reserved.


Dump of file ServiceCore.dll

File Type: DLL

  Section contains the following exports for ServiceCore.dll

    00000000 characteristics
    59C5246B time date stamp Fri Sep 22 22:55:39 2017
        0.00 version
           1 ordinal base
         125 number of functions
         125 number of names

    ordinal hint RVA      name

          1    0 00006110 ??0CWHCommandLine@@QAE@ABV0@@Z = ??0CWHCommandLine@@QAE@ABV0@@Z (public: __thiscall CWHCommandLine::CWHCommandLine(class CWHCommandLine const &))
          2    1 00006120 ??0CWHCommandLine@@QAE@XZ = ??0CWHCommandLine@@QAE@XZ (public: __thiscall CWHCommandLine::CWHCommandLine(void))
          3    2 000062F0 ??0CWHDataLocker@@QAE@AAVCCriticalSection@@_N@Z = ??0CWHDataLocker@@QAE@AAVCCriticalSection@@_N@Z (public: __thiscall CWHDataLocker::CWHDataLocker(class CCriticalSection &,bool))
          4    3 00006330 ??0CWHDataLocker@@QAE@ABV0@@Z = ??0CWHDataLocker@@QAE@ABV0@@Z (public: __thiscall CWHDataLocker::CWHDataLocker(class CWHDataLocker const &))
          5    4 000064C0 ??0CWHDataQueue@@QAE@ABV0@@Z = ??0CWHDataQueue@@QAE@ABV0@@Z (public: __thiscall CWHDataQueue::CWHDataQueue(class CWHDataQueue const &))
          6    5 00006500 ??0CWHDataQueue@@QAE@XZ = ??0CWHDataQueue@@QAE@XZ (public: __thiscall CWHDataQueue::CWHDataQueue(void))
          7    6 00006B10 ??0CWHEncrypt@@QAE@ABV0@@Z = ??0CWHEncrypt@@QAE@ABV0@@Z (public: __thiscall CWHEncrypt::CWHEncrypt(class CWHEncrypt const &))
          8    7 00006B20 ??0CWHEncrypt@@QAE@XZ = ??0CWHEncrypt@@QAE@XZ (public: __thiscall CWHEncrypt::CWHEncrypt(void))
          9    8 00007B50 ??0CWHIniData@@QAE@ABV0@@Z = ??0CWHIniData@@QAE@ABV0@@Z (public: __thiscall CWHIniData::CWHIniData(class CWHIniData const &))
         10    9 00007B80 ??0CWHIniData@@QAE@XZ = ??0CWHIniData@@QAE@XZ (public: __thiscall CWHIniData::CWHIniData(void))
         11    A 00008110 ??0CWHMD5Checksum@@IAE@XZ = ??0CWHMD5Checksum@@IAE@XZ (protected: __thiscall CWHMD5Checksum::CWHMD5Checksum(void))
         12    B 00008160 ??0CWHMD5Checksum@@QAE@ABV0@@Z = ??0CWHMD5Checksum@@QAE@ABV0@@Z (public: __thiscall CWHMD5Checksum::CWHMD5Checksum(class CWHMD5Checksum const &))
         13    C 00009020 ??0CWHRegKey@@QAE@ABV0@@Z = ??0CWHRegKey@@QAE@ABV0@@Z (public: __thiscall CWHRegKey::CWHRegKey(class CWHRegKey const &))
         14    D 00009040 ??0CWHRegKey@@QAE@XZ = ??0CWHRegKey@@QAE@XZ (public: __thiscall CWHRegKey::CWHRegKey(void))
         15    E 00005600 ??0CWHService@@AAE@XZ = ??0?$_Wrap_alloc@V?$allocator@D@std@@@std@@QAE@XZ (public: __thiscall std::_Wrap_alloc<class std::allocator<char> >::_Wrap_alloc<class std::allocator<char> >(void))
         16    F 00009DE0 ??0CWHThread@@IAE@XZ = ??0CWHThread@@IAE@XZ (protected: __thiscall CWHThread::CWHThread(void))
         17   10 00009E00 ??0CWHThread@@QAE@ABV0@@Z = ??0CWHThread@@QAE@ABV0@@Z (public: __thiscall CWHThread::CWHThread(class CWHThread const &))
         18   11 00006130 ??1CWHCommandLine@@UAE@XZ = ??1CWHCommandLine@@UAE@XZ (public: virtual __thiscall CWHCommandLine::~CWHCommandLine(void))
         19   12 00006350 ??1CWHDataLocker@@UAE@XZ = ??1CWHDataLocker@@UAE@XZ (public: virtual __thiscall CWHDataLocker::~CWHDataLocker(void))
         20   13 00006540 ??1CWHDataQueue@@UAE@XZ = ??1CWHDataQueue@@UAE@XZ (public: virtual __thiscall CWHDataQueue::~CWHDataQueue(void))
         21   14 00006B30 ??1CWHEncrypt@@UAE@XZ = ??1CWHEncrypt@@UAE@XZ (public: virtual __thiscall CWHEncrypt::~CWHEncrypt(void))
         22   15 00007BA0 ??1CWHIniData@@UAE@XZ = ??1CWHIniData@@UAE@XZ (public: virtual __thiscall CWHIniData::~CWHIniData(void))
         23   16 000081B0 ??1CWHMD5Checksum@@MAE@XZ = ??1CWHMD5Checksum@@MAE@XZ (protected: virtual __thiscall CWHMD5Checksum::~CWHMD5Checksum(void))
         24   17 00009080 ??1CWHRegKey@@UAE@XZ = ??1CWHRegKey@@UAE@XZ (public: virtual __thiscall CWHRegKey::~CWHRegKey(void))
         25   18 00009E30 ??1CWHThread@@MAE@XZ = ??1CWHThread@@MAE@XZ (protected: virtual __thiscall CWHThread::~CWHThread(void))
         26   19 00009820 ??4CWHCommandLine@@QAEAAV0@ABV0@@Z = ??4CWHCommandLine@@QAEAAV0@ABV0@@Z (public: class CWHCommandLine & __thiscall CWHCommandLine::operator=(class CWHCommandLine const &))
         27   1A 00006560 ??4CWHDataQueue@@QAEAAV0@ABV0@@Z = ??4CWHDataQueue@@QAEAAV0@ABV0@@Z (public: class CWHDataQueue & __thiscall CWHDataQueue::operator=(class CWHDataQueue const &))
         28   1B 00009820 ??4CWHEncrypt@@QAEAAV0@ABV0@@Z = ??4CWHCommandLine@@QAEAAV0@ABV0@@Z (public: class CWHCommandLine & __thiscall CWHCommandLine::operator=(class CWHCommandLine const &))
         29   1C 00007BB0 ??4CWHIniData@@QAEAAV0@ABV0@@Z = ??4CWHIniData@@QAEAAV0@ABV0@@Z (public: class CWHIniData & __thiscall CWHIniData::operator=(class CWHIniData const &))
         30   1D 000081C0 ??4CWHMD5Checksum@@QAEAAV0@ABV0@@Z = ??4CWHMD5Checksum@@QAEAAV0@ABV0@@Z (public: class CWHMD5Checksum & __thiscall CWHMD5Checksum::operator=(class CWHMD5Checksum const &))
         31   1E 000090A0 ??4CWHRegKey@@QAEAAV0@ABV0@@Z = ??4CWHRegKey@@QAEAAV0@ABV0@@Z (public: class CWHRegKey & __thiscall CWHRegKey::operator=(class CWHRegKey const &))
         32   1F 00009820 ??4CWHService@@QAEAAV0@$$QAV0@@Z = ??4CWHCommandLine@@QAEAAV0@ABV0@@Z (public: class CWHCommandLine & __thiscall CWHCommandLine::operator=(class CWHCommandLine const &))
         33   20 00009820 ??4CWHService@@QAEAAV0@ABV0@@Z = ??4CWHCommandLine@@QAEAAV0@ABV0@@Z (public: class CWHCommandLine & __thiscall CWHCommandLine::operator=(class CWHCommandLine const &))
         34   21 00009EB0 ??4CWHThread@@QAEAAV0@ABV0@@Z = ??4CWHThread@@QAEAAV0@ABV0@@Z (public: class CWHThread & __thiscall CWHThread::operator=(class CWHThread const &))
         35   22 00009340 ??BCWHRegKey@@QAEPAUHKEY__@@XZ = ??BCWHRegKey@@QAEPAUHKEY__@@XZ (public: __thiscall CWHRegKey::operator struct HKEY__ *(void))
         36   23 0000C2EC ??_7CWHCommandLine@@6B@ = ??_7CWHCommandLine@@6B@ (const CWHCommandLine::`vftable')
         37   24 0000C2F4 ??_7CWHDataLocker@@6B@ = ??_7CWHDataLocker@@6B@ (const CWHDataLocker::`vftable')
         38   25 0000C2FC ??_7CWHDataQueue@@6B@ = ??_7CWHDataQueue@@6B@ (const CWHDataQueue::`vftable')
         39   26 0000C304 ??_7CWHEncrypt@@6B@ = ??_7CWHEncrypt@@6B@ (const CWHEncrypt::`vftable')
         40   27 0000C52C ??_7CWHIniData@@6B@ = ??_7CWHIniData@@6B@ (const CWHIniData::`vftable')
         41   28 0000C534 ??_7CWHMD5Checksum@@6B@ = ??_7CWHMD5Checksum@@6B@ (const CWHMD5Checksum::`vftable')
         42   29 0000C570 ??_7CWHRegKey@@6B@ = ??_7CWHRegKey@@6B@ (const CWHRegKey::`vftable')
         43   2A 0000C5C4 ??_7CWHThread@@6B@ = ??_7CWHThread@@6B@ (const CWHThread::`vftable')
         44   2B 00009180 ?Attach@CWHRegKey@@QAEPAUHKEY__@@PAU2@@Z = ?Attach@CWHRegKey@@QAEPAUHKEY__@@PAU2@@Z (public: struct HKEY__ * __thiscall CWHRegKey::Attach(struct HKEY__ *))
         45   2C 000082C0 ?ByteToDWord@CWHMD5Checksum@@IAEXPAKPAEI@Z = ?ByteToDWord@CWHMD5Checksum@@IAEXPAKPAEI@Z (protected: void __thiscall CWHMD5Checksum::ByteToDWord(unsigned long *,unsigned char *,unsigned int))
         46   2D 00009190 ?CloseRegKey@CWHRegKey@@QAE_NXZ = ?CloseRegKey@CWHRegKey@@QAE_NXZ (public: bool __thiscall CWHRegKey::CloseRegKey(void))
         47   2E 00009850 ?CompressData@CWHService@@SAKPAEKQAEK@Z = ?CompressData@CWHService@@SAKPAEKQAEK@Z (public: static unsigned long __cdecl CWHService::CompressData(unsigned char *,unsigned long,unsigned char * const,unsigned long))
         48   2F 00009FB0 ?ConcludeThread@CWHThread@@UAE_NK@Z = ?ConcludeThread@CWHThread@@UAE_NK@Z (public: virtual bool __thiscall CWHThread::ConcludeThread(unsigned long))
         49   30 000091B0 ?CreateItemKey@CWHRegKey@@QAEPAUHKEY__@@PB_W@Z = ?CreateItemKey@CWHRegKey@@QAEPAUHKEY__@@PB_W@Z (public: struct HKEY__ * __thiscall CWHRegKey::CreateItemKey(wchar_t const *))
         50   31 000091E0 ?DeleteValue@CWHRegKey@@QAE_NPB_W@Z = ?DeleteValue@CWHRegKey@@QAE_NPB_W@Z (public: bool __thiscall CWHRegKey::DeleteValue(wchar_t const *))
         51   32 00009200 ?Detach@CWHRegKey@@QAEPAUHKEY__@@XZ = ?Detach@CWHRegKey@@QAEPAUHKEY__@@XZ (public: struct HKEY__ * __thiscall CWHRegKey::Detach(void))
         52   33 00006640 ?DistillData@CWHDataQueue@@QAE_NAAUtagDataHead@@PAXG@Z = ?DistillData@CWHDataQueue@@QAE_NAAUtagDataHead@@PAXG@Z (public: bool __thiscall CWHDataQueue::DistillData(struct tagDataHead &,void *,unsigned short))
         53   34 00009210 ?EnumItemString@CWHRegKey@@QAE_NKPA_WK@Z = ?EnumItemString@CWHRegKey@@QAE_NKPA_WK@Z (public: bool __thiscall CWHRegKey::EnumItemString(unsigned long,wchar_t *,unsigned long))
         54   35 00008320 ?FF@CWHMD5Checksum@@IAEXAAKKKKKKK@Z = ?FF@CWHMD5Checksum@@IAEXAAKKKKKKK@Z (protected: void __thiscall CWHMD5Checksum::FF(unsigned long &,unsigned long,unsigned long,unsigned long,unsigned long,unsigned long,unsigned long))
         55   36 00008350 ?Final@CWHMD5Checksum@@IAE?AV?$CStringT@_WV?$StrTraitMFC_DLL@_WV?$ChTraitsCRT@_W@ATL@@@@@ATL@@XZ = ?Final@CWHMD5Checksum@@IAE?AV?$CStringT@_WV?$StrTraitMFC_DLL@_WV?$ChTraitsCRT@_W@ATL@@@@@ATL@@XZ (protected: class ATL::CStringT<wchar_t,class StrTraitMFC_DLL<wchar_t,class ATL::ChTraitsCRT<wchar_t> > > __thiscall CWHMD5Checksum::Final(void))
         56   37 000084E0 ?GG@CWHMD5Checksum@@IAEXAAKKKKKKK@Z = ?GG@CWHMD5Checksum@@IAEXAAKKKKKKK@Z (protected: void __thiscall CWHMD5Checksum::GG(unsigned long &,unsigned long,unsigned long,unsigned long,unsigned long,unsigned long,unsigned long))
         57   38 00009240 ?GetBinary@CWHRegKey@@QAEKPB_WPAXK@Z = ?GetBinary@CWHRegKey@@QAEKPB_WPAXK@Z (public: unsigned long __thiscall CWHRegKey::GetBinary(wchar_t const *,void *,unsigned long))
         58   39 000066E0 ?GetBurthenInfo@CWHDataQueue@@QAEXAAUtagBurthenInfo@@@Z = ?GetBurthenInfo@CWHDataQueue@@QAEXAAUtagBurthenInfo@@@Z (public: void __thiscall CWHDataQueue::GetBurthenInfo(struct tagBurthenInfo &))
         59   3A 00006700 ?GetDataPacketCount@CWHDataQueue@@QAEKXZ = ?GetDataPacketCount@CWHDataQueue@@QAEKXZ (public: unsigned long __thiscall CWHDataQueue::GetDataPacketCount(void))
         60   3B 00009290 ?GetEncryptString@CWHRegKey@@QAEKPB_WPA_WI@Z = ?GetEncryptString@CWHRegKey@@QAEKPB_WPA_WI@Z (public: unsigned long __thiscall CWHRegKey::GetEncryptString(wchar_t const *,wchar_t *,unsigned int))
         61   3C 00007C90 ?GetIniFilePath@CWHIniData@@QAEPB_WXZ = ?GetIniFilePath@CWHIniData@@QAEPB_WXZ (public: wchar_t const * __thiscall CWHIniData::GetIniFilePath(void))
         62   3D 00009340 ?GetLockCount@CWHDataLocker@@QAEHXZ = ??BCWHRegKey@@QAEPAUHKEY__@@XZ (public: __thiscall CWHRegKey::operator struct HKEY__ *(void))
         63   3E 00009880 ?GetMACAddress@CWHService@@SA_NQA_W@Z = ?GetMACAddress@CWHService@@SA_NQA_W@Z (public: static bool __cdecl CWHService::GetMACAddress(wchar_t * const))
         64   3F 00008510 ?GetMD5@CWHMD5Checksum@@SA?AV?$CStringT@_WV?$StrTraitMFC_DLL@_WV?$ChTraitsCRT@_W@ATL@@@@@ATL@@AAVCFile@@@Z = ?GetMD5@CWHMD5Checksum@@SA?AV?$CStringT@_WV?$StrTraitMFC_DLL@_WV?$ChTraitsCRT@_W@ATL@@@@@ATL@@AAVCFile@@@Z (public: static class ATL::CStringT<wchar_t,class StrTraitMFC_DLL<wchar_t,class ATL::ChTraitsCRT<wchar_t> > > __cdecl CWHMD5Checksum::GetMD5(class CFile &))
         65   40 00008630 ?GetMD5@CWHMD5Checksum@@SA?AV?$CStringT@_WV?$StrTraitMFC_DLL@_WV?$ChTraitsCRT@_W@ATL@@@@@ATL@@ABV23@@Z = ?GetMD5@CWHMD5Checksum@@SA?AV?$CStringT@_WV?$StrTraitMFC_DLL@_WV?$ChTraitsCRT@_W@ATL@@@@@ATL@@ABV23@@Z (public: static class ATL::CStringT<wchar_t,class StrTraitMFC_DLL<wchar_t,class ATL::ChTraitsCRT<wchar_t> > > __cdecl CWHMD5Checksum::GetMD5(class ATL::CStringT<wchar_t,class StrTraitMFC_DLL<wchar_t,class ATL::ChTraitsCRT<wchar_t> > > const &))
         66   41 000086E0 ?GetMD5@CWHMD5Checksum@@SA?AV?$CStringT@_WV?$StrTraitMFC_DLL@_WV?$ChTraitsCRT@_W@ATL@@@@@ATL@@PAEI@Z = ?GetMD5@CWHMD5Checksum@@SA?AV?$CStringT@_WV?$StrTraitMFC_DLL@_WV?$ChTraitsCRT@_W@ATL@@@@@ATL@@PAEI@Z (public: static class ATL::CStringT<wchar_t,class StrTraitMFC_DLL<wchar_t,class ATL::ChTraitsCRT<wchar_t> > > __cdecl CWHMD5Checksum::GetMD5(unsigned char *,unsigned int))
         67   42 00009A50 ?GetMachineID@CWHService@@SA_NQA_W@Z = ?GetMachineID@CWHService@@SA_NQA_W@Z (public: static bool __cdecl CWHService::GetMachineID(wchar_t * const))
         68   43 00009A50 ?GetMachineIDEx@CWHService@@SA_NQA_W@Z = ?GetMachineID@CWHService@@SA_NQA_W@Z (public: static bool __cdecl CWHService::GetMachineID(wchar_t * const))
         69   44 00009330 ?GetMainKeyName@CWHRegKey@@SAPB_WXZ = ?GetMainKeyName@CWHRegKey@@SAPB_WXZ (public: static wchar_t const * __cdecl CWHRegKey::GetMainKeyName(void))
         70   45 00009AA0 ?GetModuleVersion@CWHService@@SA_NPB_WAAK@Z = ?GetModuleVersion@CWHService@@SA_NPB_WAAK@Z (public: static bool __cdecl CWHService::GetModuleVersion(wchar_t const *,unsigned long &))
         71   46 00009340 ?GetRegKey@CWHRegKey@@QAEPAUHKEY__@@XZ = ??BCWHRegKey@@QAEPAUHKEY__@@XZ (public: __thiscall CWHRegKey::operator struct HKEY__ *(void))
         72   47 00009350 ?GetString@CWHRegKey@@QAEKPB_WPA_WI@Z = ?GetString@CWHRegKey@@QAEKPB_WPA_WI@Z (public: unsigned long __thiscall CWHRegKey::GetString(wchar_t const *,wchar_t *,unsigned int))
         73   48 0000A010 ?GetThreadHandle@CWHThread@@QAEPAXXZ = ?GetThreadHandle@CWHThread@@QAEPAXXZ (public: void * __thiscall CWHThread::GetThreadHandle(void))
         74   49 0000A020 ?GetThreadID@CWHThread@@QAEIXZ = ?GetThreadID@CWHThread@@QAEIXZ (public: unsigned int __thiscall CWHThread::GetThreadID(void))
         75   4A 000093A0 ?GetValue@CWHRegKey@@QAEKPB_WK@Z = ?GetValue@CWHRegKey@@QAEKPB_WK@Z (public: unsigned long __thiscall CWHRegKey::GetValue(wchar_t const *,unsigned long))
         76   4B 00009B80 ?GetWorkDirectory@CWHService@@SA_NQA_WG@Z = ?GetWorkDirectory@CWHService@@SA_NQA_WG@Z (public: static bool __cdecl CWHService::GetWorkDirectory(wchar_t * const,unsigned short))
         77   4C 000087A0 ?HH@CWHMD5Checksum@@IAEXAAKKKKKKK@Z = ?HH@CWHMD5Checksum@@IAEXAAKKKKKKK@Z (protected: void __thiscall CWHMD5Checksum::HH(unsigned long &,unsigned long,unsigned long,unsigned long,unsigned long,unsigned long,unsigned long))
         78   4D 000087D0 ?II@CWHMD5Checksum@@IAEXAAKKKKKKK@Z = ?II@CWHMD5Checksum@@IAEXAAKKKKKKK@Z (protected: void __thiscall CWHMD5Checksum::II(unsigned long &,unsigned long,unsigned long,unsigned long,unsigned long,unsigned long,unsigned long))
         79   4E 00006710 ?InsertData@CWHDataQueue@@QAE_NGPAXG@Z = ?InsertData@CWHDataQueue@@QAE_NGPAXG@Z (public: bool __thiscall CWHDataQueue::InsertData(unsigned short,void *,unsigned short))
         80   4F 000067A0 ?InsertData@CWHDataQueue@@QAE_NGQAUtagDataBuffer@@G@Z = ?InsertData@CWHDataQueue@@QAE_NGQAUtagDataBuffer@@G@Z (public: bool __thiscall CWHDataQueue::InsertData(unsigned short,struct tagDataBuffer * const,unsigned short))
         81   50 0000A030 ?IsRuning@CWHThread@@UAE_NXZ = ?IsRuning@CWHThread@@UAE_NXZ (public: virtual bool __thiscall CWHThread::IsRuning(void))
         82   51 00006480 ?Lock@CWHDataLocker@@QAEXXZ = ?Lock@CWHDataLocker@@QAEXXZ (public: void __thiscall CWHDataLocker::Lock(void))
         83   52 00006D10 ?MD5Encrypt@CWHEncrypt@@SA_NPB_WQA_W@Z = ?MD5Encrypt@CWHEncrypt@@SA_NPB_WQA_W@Z (public: static bool __cdecl CWHEncrypt::MD5Encrypt(wchar_t const *,wchar_t * const))
         84   53 00007740 ?MapCrevasse@CWHEncrypt@@SA_NPB_WPA_WG@Z = ?MapCrevasse@CWHEncrypt@@SA_NPB_WPA_WG@Z (public: static bool __cdecl CWHEncrypt::MapCrevasse(wchar_t const *,wchar_t *,unsigned short))
         85   54 00007790 ?MapEncrypt@CWHEncrypt@@SA_NPB_WPA_WG@Z = ?MapEncrypt@CWHEncrypt@@SA_NPB_WPA_WG@Z (public: static bool __cdecl CWHEncrypt::MapEncrypt(wchar_t const *,wchar_t *,unsigned short))
         86   55 0000B370 ?OnEventThreadConclude@CWHThread@@MAE_NXZ = ?OnEventThreadConclude@CWHThread@@MAE_NXZ (protected: virtual bool __thiscall CWHThread::OnEventThreadConclude(void))
         87   56 0000B370 ?OnEventThreadRun@CWHThread@@MAE_NXZ = ?OnEventThreadConclude@CWHThread@@MAE_NXZ (protected: virtual bool __thiscall CWHThread::OnEventThreadConclude(void))
         88   57 0000B370 ?OnEventThreadStrat@CWHThread@@MAE_NXZ = ?OnEventThreadConclude@CWHThread@@MAE_NXZ (protected: virtual bool __thiscall CWHThread::OnEventThreadConclude(void))
         89   58 000093F0 ?OpenItemKey@CWHRegKey@@QAEPAUHKEY__@@PB_W@Z = ?OpenItemKey@CWHRegKey@@QAEPAUHKEY__@@PB_W@Z (public: struct HKEY__ * __thiscall CWHRegKey::OpenItemKey(wchar_t const *))
         90   59 00009420 ?OpenRegKey@CWHRegKey@@QAE_NPB_W0_N@Z = ?OpenRegKey@CWHRegKey@@QAE_NPB_W0_N@Z (public: bool __thiscall CWHRegKey::OpenRegKey(wchar_t const *,wchar_t const *,bool))
         91   5A 000094D0 ?OpenRegKey@CWHRegKey@@QAE_NPB_W_N@Z = ?OpenRegKey@CWHRegKey@@QAE_NPB_W_N@Z (public: bool __thiscall CWHRegKey::OpenRegKey(wchar_t const *,bool))
         92   5B 0000A050 ?PostThreadMessageW@CWHThread@@QAEJIIJ@Z = ?PostThreadMessageW@CWHThread@@QAEJIIJ@Z (public: long __thiscall CWHThread::PostThreadMessageW(unsigned int,unsigned int,long))
         93   5C 00007CA0 ?ReadColor@CWHIniData@@QAE_NAAKPB_W1@Z = ?ReadColor@CWHIniData@@QAE_NAAKPB_W1@Z (public: bool __thiscall CWHIniData::ReadColor(unsigned long &,wchar_t const *,wchar_t const *))
         94   5D 00007D90 ?ReadEncryptString@CWHIniData@@QAEPB_WPB_W00PA_WG@Z = ?ReadEncryptString@CWHIniData@@QAEPB_WPB_W00PA_WG@Z (public: wchar_t const * __thiscall CWHIniData::ReadEncryptString(wchar_t const *,wchar_t const *,wchar_t const *,wchar_t *,unsigned short))
         95   5E 00007E70 ?ReadInt@CWHIniData@@QAEIPB_W0H@Z = ?ReadInt@CWHIniData@@QAEIPB_W0H@Z (public: unsigned int __thiscall CWHIniData::ReadInt(wchar_t const *,wchar_t const *,int))
         96   5F 00007E90 ?ReadPoint@CWHIniData@@QAE_NAAUtagPOINT@@PB_W1@Z = ?ReadPoint@CWHIniData@@QAE_NAAUtagPOINT@@PB_W1@Z (public: bool __thiscall CWHIniData::ReadPoint(struct tagPOINT &,wchar_t const *,wchar_t const *))
         97   60 00007F60 ?ReadRect@CWHIniData@@QAE_NAAUtagRECT@@PB_W1@Z = ?ReadRect@CWHIniData@@QAE_NAAUtagRECT@@PB_W1@Z (public: bool __thiscall CWHIniData::ReadRect(struct tagRECT &,wchar_t const *,wchar_t const *))
         98   61 00007E90 ?ReadSize@CWHIniData@@QAE_NAAUtagSIZE@@PB_W1@Z = ?ReadPoint@CWHIniData@@QAE_NAAUtagPOINT@@PB_W1@Z (public: bool __thiscall CWHIniData::ReadPoint(struct tagPOINT &,wchar_t const *,wchar_t const *))
         99   62 00008050 ?ReadString@CWHIniData@@QAEPB_WPB_W00PA_WG@Z = ?ReadString@CWHIniData@@QAEPB_WPB_W00PA_WG@Z (public: wchar_t const * __thiscall CWHIniData::ReadString(wchar_t const *,wchar_t const *,wchar_t const *,wchar_t *,unsigned short))
        100   63 00006890 ?RectifyBuffer@CWHDataQueue@@AAE_NK@Z = ?RectifyBuffer@CWHDataQueue@@AAE_NK@Z (private: bool __thiscall CWHDataQueue::RectifyBuffer(unsigned long))
        101   64 00009580 ?RecurseDeleteKey@CWHRegKey@@AAEJPAUHKEY__@@PB_W@Z = ?RecurseDeleteKey@CWHRegKey@@AAEJPAUHKEY__@@PB_W@Z (private: long __thiscall CWHRegKey::RecurseDeleteKey(struct HKEY__ *,wchar_t const *))
        102   65 00009670 ?RecurseDeleteKey@CWHRegKey@@QAE_NPB_W@Z = ?RecurseDeleteKey@CWHRegKey@@QAE_NPB_W@Z (public: bool __thiscall CWHRegKey::RecurseDeleteKey(wchar_t const *))
        103   66 00009C30 ?RegisterHotKey@CWHService@@SA_NPAUHWND__@@IG@Z = ?RegisterHotKey@CWHService@@SA_NPAUHWND__@@IG@Z (public: static bool __cdecl CWHService::RegisterHotKey(struct HWND__ *,unsigned int,unsigned short))
        104   67 00006A20 ?RemoveData@CWHDataQueue@@QAEX_N@Z = ?RemoveData@CWHDataQueue@@QAEX_N@Z (public: void __thiscall CWHDataQueue::RemoveData(bool))
        105   68 00008800 ?RotateLeft@CWHMD5Checksum@@IAEKKH@Z = ?RotateLeft@CWHMD5Checksum@@IAEKKH@Z (protected: unsigned long __thiscall CWHMD5Checksum::RotateLeft(unsigned long,int))
        106   69 000061E0 ?SearchCommandItem@CWHCommandLine@@QAE_NPB_W0QA_WG@Z = ?SearchCommandItem@CWHCommandLine@@QAE_NPB_W0QA_WG@Z (public: bool __thiscall CWHCommandLine::SearchCommandItem(wchar_t const *,wchar_t const *,wchar_t * const,unsigned short))
        107   6A 00009CA0 ?SetClipboardString@CWHService@@SA_NPB_W@Z = ?SetClipboardString@CWHService@@SA_NPB_W@Z (public: static bool __cdecl CWHService::SetClipboardString(wchar_t const *))
        108   6B 00008080 ?SetIniFilePath@CWHIniData@@QAEXPB_W@Z = ?SetIniFilePath@CWHIniData@@QAEXPB_W@Z (public: void __thiscall CWHIniData::SetIniFilePath(wchar_t const *))
        109   6C 00009690 ?SetMainKeyName@CWHRegKey@@SAXPB_W@Z = ?SetMainKeyName@CWHRegKey@@SAXPB_W@Z (public: static void __cdecl CWHRegKey::SetMainKeyName(wchar_t const *))
        110   6D 0000A090 ?StartThread@CWHThread@@UAE_NXZ = ?StartThread@CWHThread@@UAE_NXZ (public: virtual bool __thiscall CWHThread::StartThread(void))
        111   6E 000080A0 ?SwitchStringToValue@CWHIniData@@IAEJAAPB_W@Z = ?SwitchStringToValue@CWHIniData@@IAEJAAPB_W@Z (protected: long __thiscall CWHIniData::SwitchStringToValue(wchar_t const * &))
        112   6F 0000A160 ?ThreadFunction@CWHThread@@CGIPAX@Z = ?ThreadFunction@CWHThread@@CGIPAX@Z (private: static unsigned int __stdcall CWHThread::ThreadFunction(void *))
        113   70 00008810 ?Transform@CWHMD5Checksum@@IAEXQAE@Z = ?Transform@CWHMD5Checksum@@IAEXQAE@Z (protected: void __thiscall CWHMD5Checksum::Transform(unsigned char * const))
        114   71 00008F20 ?ULongToUInt8@CWHMD5Checksum@@IAEXPAEPAKI@Z = ?ULongToUInt8@CWHMD5Checksum@@IAEXPAEPAKI@Z (protected: void __thiscall CWHMD5Checksum::ULongToUInt8(unsigned char *,unsigned long *,unsigned int))
        115   72 00009D90 ?UnCompressData@CWHService@@SAKPAEKQAEK@Z = ?UnCompressData@CWHService@@SAKPAEKQAEK@Z (public: static unsigned long __cdecl CWHService::UnCompressData(unsigned char *,unsigned long,unsigned char * const,unsigned long))
        116   73 000064A0 ?UnLock@CWHDataLocker@@QAEXXZ = ?UnLock@CWHDataLocker@@QAEXXZ (public: void __thiscall CWHDataLocker::UnLock(void))
        117   74 00009DC0 ?UnRegisterHotKey@CWHService@@SA_NPAUHWND__@@I@Z = ?UnRegisterHotKey@CWHService@@SA_NPAUHWND__@@I@Z (public: static bool __cdecl CWHService::UnRegisterHotKey(struct HWND__ *,unsigned int))
        118   75 00008F70 ?Update@CWHMD5Checksum@@IAEXPAEK@Z = ?Update@CWHMD5Checksum@@IAEXPAEK@Z (protected: void __thiscall CWHMD5Checksum::Update(unsigned char *,unsigned long))
        119   76 000096B0 ?WriteBinary@CWHRegKey@@QAE_NPB_WPBXK@Z = ?WriteBinary@CWHRegKey@@QAE_NPB_WPBXK@Z (public: bool __thiscall CWHRegKey::WriteBinary(wchar_t const *,void const *,unsigned long))
        120   77 000096E0 ?WriteEncryptString@CWHRegKey@@QAE_NPB_W0@Z = ?WriteEncryptString@CWHRegKey@@QAE_NPB_W0@Z (public: bool __thiscall CWHRegKey::WriteEncryptString(wchar_t const *,wchar_t const *))
        121   78 00009770 ?WriteString@CWHRegKey@@QAE_NPB_W0@Z = ?WriteString@CWHRegKey@@QAE_NPB_W0@Z (public: bool __thiscall CWHRegKey::WriteString(wchar_t const *,wchar_t const *))
        122   79 000097B0 ?WriteValue@CWHRegKey@@QAE_NPB_WK@Z = ?WriteValue@CWHRegKey@@QAE_NPB_WK@Z (public: bool __thiscall CWHRegKey::WriteValue(wchar_t const *,unsigned long))
        123   7A 000077E0 ?XorCrevasse@CWHEncrypt@@SA_NPB_WPA_WG@Z = ?XorCrevasse@CWHEncrypt@@SA_NPB_WPA_WG@Z (public: static bool __cdecl CWHEncrypt::XorCrevasse(wchar_t const *,wchar_t *,unsigned short))
        124   7B 00007980 ?XorEncrypt@CWHEncrypt@@SA_NPB_WPA_WG@Z = ?XorEncrypt@CWHEncrypt@@SA_NPB_WPA_WG@Z (public: static bool __cdecl CWHEncrypt::XorEncrypt(wchar_t const *,wchar_t *,unsigned short))
        125   7C 000123C0 ?m_szMainKeyName@CWHRegKey@@1PA_WA = ?m_szMainKeyName@CWHRegKey@@1PA_WA (protected: static wchar_t * CWHRegKey::m_szMainKeyName)

  Summary

        2000 .data
        1000 .gfids
        5000 .rdata
        1000 .reloc
        1000 .rsrc
        B000 .text
        1000 .tls
